	.file	"main4.cpp"
	.text
.Ltext0:
	.file 0 "/home/user/Parallel" "src/main4.cpp"
	.p2align 4
	.globl	_Z11spline_initPdS_i
	.type	_Z11spline_initPdS_i, @function
_Z11spline_initPdS_i:
.LVL0:
.LFB2515:
	.file 1 "src/main4.cpp"
	.loc 1 18 50 view -0
	.cfi_startproc
	.loc 1 18 50 is_stmt 0 view .LVU1
	endbr64
	.loc 1 19 5 is_stmt 1 view .LVU2
	.loc 1 18 50 is_stmt 0 view .LVU3
	pushq	%rbp
	.cfi_def_cfa_offset 16
	.cfi_offset 6, -16
	movq	%rsp, %rbp
	.cfi_def_cfa_register 6
	pushq	%r15
	.cfi_offset 15, -24
	movl	%edx, %r15d
	pushq	%r14
	pushq	%r13
	pushq	%r12
	pushq	%rbx
	.cfi_offset 14, -32
	.cfi_offset 13, -40
	.cfi_offset 12, -48
	.cfi_offset 3, -56
	movq	%rsi, %rbx
	andq	$-32, %rsp
	subq	$96, %rsp
	.loc 1 18 50 view .LVU4
	movq	%rdi, 80(%rsp)
	.loc 1 19 37 view .LVU5
	movl	$48, %edi
.LVL1:
	.loc 1 19 37 view .LVU6
	call	malloc@PLT
.LVL2:
	.loc 1 19 37 view .LVU7
	movq	%rax, %r12
.LVL3:
	.loc 1 20 5 is_stmt 1 view .LVU8
	.loc 1 20 33 is_stmt 0 view .LVU9
	movslq	%r15d, %rax
.LVL4:
	.loc 1 20 32 view .LVU10
	leaq	0(,%rax,8), %r13
	movq	%r13, %rdi
	.loc 1 20 33 view .LVU11
	movl	%r15d, 88(%rsp)
	movq	%rax, 40(%rsp)
	.loc 1 20 32 view .LVU12
	call	malloc@PLT
.LVL5:
	.loc 1 20 15 view .LVU13
	movq	%rax, (%r12)
	.loc 1 21 5 is_stmt 1 view .LVU14
	.loc 1 21 32 is_stmt 0 view .LVU15
	movq	%r13, %rdi
	.loc 1 20 32 view .LVU16
	movq	%rax, %r15
.LVL6:
	.loc 1 21 32 view .LVU17
	call	malloc@PLT
.LVL7:
	.loc 1 21 15 view .LVU18
	movq	%rax, 8(%r12)
	.loc 1 22 5 is_stmt 1 view .LVU19
	.loc 1 22 32 is_stmt 0 view .LVU20
	movq	%r13, %rdi
	.loc 1 21 32 view .LVU21
	movq	%rax, 64(%rsp)
	.loc 1 22 32 view .LVU22
	call	malloc@PLT
.LVL8:
	.loc 1 22 15 view .LVU23
	movq	%rax, 16(%r12)
	.loc 1 23 5 is_stmt 1 view .LVU24
	.loc 1 23 32 is_stmt 0 view .LVU25
	movq	%r13, %rdi
	.loc 1 22 32 view .LVU26
	movq	%rax, %r14
	.loc 1 23 32 view .LVU27
	call	malloc@PLT
.LVL9:
	.loc 1 23 15 view .LVU28
	movq	%rax, 24(%r12)
	.loc 1 24 5 is_stmt 1 view .LVU29
	.loc 1 24 32 is_stmt 0 view .LVU30
	movq	%r13, %rdi
	.loc 1 23 15 view .LVU31
	movq	%r12, 72(%rsp)
	.loc 1 23 32 view .LVU32
	movq	%rax, 56(%rsp)
	.loc 1 24 32 view .LVU33
	call	malloc@PLT
.LVL10:
	.loc 1 25 15 view .LVU34
	movl	88(%rsp), %edi
	.loc 1 24 32 view .LVU35
	movq	%rax, %r12
.LVL11:
	.loc 1 24 15 view .LVU36
	movq	72(%rsp), %rax
.LBB64:
	.loc 1 29 23 view .LVU37
	testl	%edi, %edi
.LBE64:
	.loc 1 24 15 view .LVU38
	movq	%r12, 32(%rax)
	.loc 1 25 5 is_stmt 1 view .LVU39
	.loc 1 25 15 is_stmt 0 view .LVU40
	movl	%edi, 40(%rax)
	.loc 1 29 5 is_stmt 1 view .LVU41
.LVL12:
.LBB65:
	.loc 1 29 23 view .LVU42
	movq	80(%rsp), %rcx
	jle	.L2
	.loc 1 30 22 is_stmt 0 view .LVU43
	movq	%r13, %rdx
	movq	%rbx, %rsi
	movq	%r15, %rdi
	call	memcpy@PLT
.LVL13:
	.loc 1 31 22 view .LVU44
	movq	80(%rsp), %rsi
	movq	%r13, %rdx
	movq	%r12, %rdi
	call	memcpy@PLT
.LVL14:
	movq	80(%rsp), %rcx
.L2:
.LBE65:
	.loc 1 35 36 view .LVU45
	movl	88(%rsp), %eax
	.loc 1 35 32 view .LVU46
	leaq	-8(%r13), %r15
	.loc 1 35 36 view .LVU47
	leal	-1(%rax), %edx
	.loc 1 35 32 view .LVU48
	movq	%r15, %rdi
	.loc 1 35 36 view .LVU49
	movl	%edx, 80(%rsp)
.LVL15:
	.loc 1 35 36 view .LVU50
	movq	%rcx, 48(%rsp)
.LVL16:
	.loc 1 35 5 is_stmt 1 view .LVU51
	.loc 1 35 32 is_stmt 0 view .LVU52
	call	malloc@PLT
.LVL17:
.LBB66:
	.loc 1 37 23 view .LVU53
	movl	80(%rsp), %edx
.LBE66:
	.loc 1 35 32 view .LVU54
	movq	%rax, %r12
.LVL18:
	.loc 1 37 5 is_stmt 1 view .LVU55
.LBB67:
	.loc 1 37 23 view .LVU56
	testl	%edx, %edx
	jle	.L3
	movl	88(%rsp), %eax
.LVL19:
	.loc 1 37 23 is_stmt 0 view .LVU57
	movq	48(%rsp), %rcx
	subl	$2, %eax
	cmpl	$2, %eax
	movl	%eax, 80(%rsp)
	jbe	.L24
	movl	%edx, %esi
	shrl	$2, %esi
	salq	$5, %rsi
	xorl	%eax, %eax
.LVL20:
	.p2align 4,,10
	.p2align 3
.L5:
	.loc 1 38 9 is_stmt 1 discriminator 3 view .LVU58
	.loc 1 38 23 is_stmt 0 discriminator 3 view .LVU59
	vmovupd	8(%rcx,%rax), %ymm7
	vsubpd	(%rcx,%rax), %ymm7, %ymm0
	.loc 1 38 14 discriminator 3 view .LVU60
	vmovupd	%ymm0, (%r12,%rax)
	.loc 1 37 5 is_stmt 1 discriminator 3 view .LVU61
	.loc 1 37 23 discriminator 3 view .LVU62
	addq	$32, %rax
	cmpq	%rsi, %rax
	jne	.L5
	movl	%edx, %esi
	andl	$-4, %esi
	movl	%esi, %eax
	cmpl	%esi, %edx
	je	.L45
	vzeroupper
.L4:
	.loc 1 37 23 is_stmt 0 discriminator 3 view .LVU63
	movl	88(%rsp), %r8d
	subl	%esi, %r8d
	leal	-1(%r8), %edi
	cmpl	$2, %r8d
	je	.L7
	.loc 1 38 9 is_stmt 1 view .LVU64
	incl	%esi
	.loc 1 38 23 is_stmt 0 view .LVU65
	vmovupd	(%rcx,%rsi,8), %xmm7
	vsubpd	-8(%rcx,%rsi,8), %xmm7, %xmm0
	.loc 1 38 14 view .LVU66
	vmovupd	%xmm0, -8(%r12,%rsi,8)
	.loc 1 37 5 is_stmt 1 view .LVU67
	.loc 1 37 23 view .LVU68
	movl	%edi, %esi
	andl	$-2, %esi
	addl	%esi, %eax
	cmpl	%esi, %edi
	je	.L6
.L7:
	.loc 1 38 9 view .LVU69
	.loc 1 38 21 is_stmt 0 view .LVU70
	cltq
	incq	%rax
	.loc 1 38 23 view .LVU71
	vmovsd	(%rcx,%rax,8), %xmm0
	vsubsd	-8(%rcx,%rax,8), %xmm0, %xmm0
	.loc 1 38 14 view .LVU72
	vmovsd	%xmm0, -8(%r12,%rax,8)
	.loc 1 37 5 is_stmt 1 view .LVU73
	.loc 1 37 23 view .LVU74
.L6:
	.loc 1 37 23 is_stmt 0 view .LVU75
.LBE67:
	.loc 1 41 36 view .LVU76
	movq	%r15, %rdi
	movl	%edx, 48(%rsp)
	.loc 1 41 5 is_stmt 1 view .LVU77
	movq	%rcx, 32(%rsp)
	.loc 1 41 36 is_stmt 0 view .LVU78
	call	malloc@PLT
.LVL21:
.LBB68:
	.loc 1 43 23 view .LVU79
	movl	48(%rsp), %edx
.LBE68:
	.loc 1 41 36 view .LVU80
	movq	%rax, %r8
.LVL22:
	.loc 1 43 5 is_stmt 1 view .LVU81
.LBB69:
	.loc 1 43 23 view .LVU82
	cmpl	$1, %edx
	jle	.L9
	movl	88(%rsp), %eax
.LVL23:
	.loc 1 43 23 is_stmt 0 view .LVU83
	movq	32(%rsp), %rcx
	leal	-3(%rax), %r9d
	cmpl	$2, %r9d
	jbe	.L25
	movl	80(%rsp), %esi
	vmovapd	.LC1(%rip), %ymm2
	shrl	$2, %esi
	salq	$5, %rsi
	xorl	%eax, %eax
.LVL24:
	.p2align 4,,10
	.p2align 3
.L11:
	.loc 1 44 9 is_stmt 1 discriminator 3 view .LVU84
	.loc 1 44 47 is_stmt 0 discriminator 3 view .LVU85
	vmovupd	8(%rbx,%rax), %ymm0
	.loc 1 44 42 discriminator 3 view .LVU86
	vmovupd	16(%rbx,%rax), %ymm3
	.loc 1 44 58 discriminator 3 view .LVU87
	vdivpd	(%r12,%rax), %ymm2, %ymm4
	.loc 1 44 42 discriminator 3 view .LVU88
	vsubpd	%ymm0, %ymm3, %ymm1
	.loc 1 44 75 discriminator 3 view .LVU89
	vsubpd	(%rbx,%rax), %ymm0, %ymm0
	.loc 1 44 25 discriminator 3 view .LVU90
	vdivpd	8(%r12,%rax), %ymm2, %ymm3
	.loc 1 44 67 discriminator 3 view .LVU91
	vmulpd	%ymm4, %ymm0, %ymm0
	.loc 1 44 51 discriminator 3 view .LVU92
	vfmsub231pd	%ymm3, %ymm1, %ymm0
	.loc 1 44 18 discriminator 3 view .LVU93
	vmovupd	%ymm0, 8(%r8,%rax)
	.loc 1 43 5 is_stmt 1 discriminator 3 view .LVU94
	.loc 1 43 23 discriminator 3 view .LVU95
	addq	$32, %rax
	cmpq	%rsi, %rax
	jne	.L11
	movl	80(%rsp), %edi
	movl	%edi, %esi
	andl	$-4, %esi
	leal	1(%rsi), %eax
	cmpl	%esi, %edi
	je	.L46
	vzeroupper
.L10:
	.loc 1 43 23 is_stmt 0 discriminator 3 view .LVU96
	movl	88(%rsp), %edi
	subl	%esi, %edi
	leal	-2(%rdi), %r10d
	cmpl	$3, %edi
	je	.L13
	.loc 1 44 9 is_stmt 1 view .LVU97
	leal	1(%rsi), %edi
	leaq	0(,%rdi,8), %rsi
	.loc 1 44 47 is_stmt 0 view .LVU98
	vmovupd	(%rbx,%rdi,8), %xmm0
	.loc 1 44 42 view .LVU99
	vmovupd	8(%rbx,%rsi), %xmm7
	.loc 1 44 25 view .LVU100
	vmovapd	.LC2(%rip), %xmm3
	.loc 1 44 42 view .LVU101
	vsubpd	%xmm0, %xmm7, %xmm1
	.loc 1 44 75 view .LVU102
	vsubpd	-8(%rbx,%rsi), %xmm0, %xmm0
	.loc 1 44 25 view .LVU103
	vdivpd	(%r12,%rdi,8), %xmm3, %xmm2
	.loc 1 44 58 view .LVU104
	vdivpd	-8(%r12,%rsi), %xmm3, %xmm3
	.loc 1 44 67 view .LVU105
	vmulpd	%xmm3, %xmm0, %xmm0
	.loc 1 44 51 view .LVU106
	vfmsub231pd	%xmm2, %xmm1, %xmm0
	.loc 1 44 18 view .LVU107
	vmovupd	%xmm0, (%r8,%rsi)
	.loc 1 43 5 is_stmt 1 view .LVU108
	.loc 1 43 23 view .LVU109
	movl	%r10d, %esi
	andl	$-2, %esi
	addl	%esi, %eax
	cmpl	%r10d, %esi
	je	.L12
.L13:
	.loc 1 44 9 view .LVU110
	.loc 1 44 29 is_stmt 0 view .LVU111
	cltq
	.loc 1 44 30 view .LVU112
	leaq	0(,%rax,8), %rsi
	.loc 1 44 47 view .LVU113
	vmovsd	(%rbx,%rax,8), %xmm0
	.loc 1 44 42 view .LVU114
	vmovsd	8(%rbx,%rsi), %xmm1
	.loc 1 44 25 view .LVU115
	vmovsd	.LC3(%rip), %xmm5
	.loc 1 44 42 view .LVU116
	vsubsd	%xmm0, %xmm1, %xmm1
	.loc 1 44 75 view .LVU117
	vsubsd	-8(%rbx,%rsi), %xmm0, %xmm0
	.loc 1 44 25 view .LVU118
	vdivsd	(%r12,%rax,8), %xmm5, %xmm2
	.loc 1 44 58 view .LVU119
	vdivsd	-8(%r12,%rsi), %xmm5, %xmm5
	.loc 1 44 67 view .LVU120
	vmulsd	%xmm5, %xmm0, %xmm0
	.loc 1 44 51 view .LVU121
	vfmsub132sd	%xmm2, %xmm0, %xmm1
	.loc 1 44 18 view .LVU122
	vmovsd	%xmm1, (%r8,%rsi)
	.loc 1 43 5 is_stmt 1 view .LVU123
	.loc 1 43 23 view .LVU124
.L12:
	.loc 1 43 23 is_stmt 0 view .LVU125
.LBE69:
	.loc 1 47 32 view .LVU126
	movq	%r13, %rdi
	movl	%r9d, 4(%rsp)
	movq	%rcx, 8(%rsp)
	movq	%r8, 16(%rsp)
	movl	%edx, 24(%rsp)
	.loc 1 47 5 is_stmt 1 view .LVU127
	.loc 1 47 32 is_stmt 0 view .LVU128
	call	malloc@PLT
.LVL25:
	.loc 1 48 33 view .LVU129
	movq	%r15, %rdi
	.loc 1 47 32 view .LVU130
	movq	%rax, 32(%rsp)
.LVL26:
	.loc 1 48 5 is_stmt 1 view .LVU131
	.loc 1 48 33 is_stmt 0 view .LVU132
	call	malloc@PLT
.LVL27:
	.loc 1 49 32 view .LVU133
	movq	%r13, %rdi
	.loc 1 48 33 view .LVU134
	movq	%rax, 48(%rsp)
.LVL28:
	.loc 1 49 5 is_stmt 1 view .LVU135
	.loc 1 49 32 is_stmt 0 view .LVU136
	call	malloc@PLT
.LVL29:
	.loc 1 51 10 view .LVU137
	vmovsd	.LC5(%rip), %xmm4
	movq	32(%rsp), %r10
	.loc 1 52 11 view .LVU138
	movq	48(%rsp), %r11
	cmpl	$5, 88(%rsp)
	.loc 1 53 10 view .LVU139
	movq	$0x000000000, (%rax)
	.loc 1 49 32 view .LVU140
	movq	%rax, %r15
.LVL30:
	.loc 1 51 5 is_stmt 1 view .LVU141
	.loc 1 52 11 is_stmt 0 view .LVU142
	movq	$0x000000000, (%r11)
	vmovsd	.LC4(%rip), %xmm3
	movl	24(%rsp), %edx
	movq	16(%rsp), %r8
	movq	8(%rsp), %rcx
	movl	4(%rsp), %r9d
	.loc 1 51 10 view .LVU143
	vmovsd	%xmm4, (%r10)
	.loc 1 52 5 is_stmt 1 view .LVU144
	.loc 1 53 5 view .LVU145
	.loc 1 55 5 view .LVU146
.LVL31:
.LBB70:
	.loc 1 55 23 view .LVU147
.LBE70:
	.loc 1 53 10 is_stmt 0 view .LVU148
	movl	$1, %eax
.LVL32:
	.loc 1 53 10 view .LVU149
	jle	.L15
	.loc 1 53 10 view .LVU150
	vxorpd	%xmm7, %xmm7, %xmm7
	vmovsd	(%r12), %xmm8
	vmovsd	(%rcx), %xmm2
	vmovsd	8(%rcx), %xmm1
	vmovsd	.LC4(%rip), %xmm3
	movl	$4, %esi
	vmovsd	%xmm7, %xmm7, %xmm6
.LVL33:
.L17:
.LBB71:
	.loc 1 56 9 is_stmt 1 discriminator 3 view .LVU151
	.loc 1 56 49 is_stmt 0 discriminator 3 view .LVU152
	vmulsd	%xmm8, %xmm7, %xmm7
	.loc 1 56 28 discriminator 3 view .LVU153
	vmovsd	-16(%rcx,%rsi,8), %xmm5
	.loc 1 57 20 discriminator 3 view .LVU154
	vmovsd	-24(%r12,%rsi,8), %xmm0
	.loc 1 56 30 discriminator 3 view .LVU155
	vsubsd	%xmm2, %xmm5, %xmm2
	.loc 1 58 26 discriminator 3 view .LVU156
	vfnmadd213sd	-24(%r8,%rsi,8), %xmm8, %xmm6
	.loc 1 57 20 discriminator 3 view .LVU157
	vmovsd	-16(%r12,%rsi,8), %xmm9
	.loc 1 56 40 discriminator 3 view .LVU158
	vfmsub132sd	%xmm3, %xmm7, %xmm2
	.loc 1 57 20 discriminator 3 view .LVU159
	vmovsd	-8(%r12,%rsi,8), %xmm8
	.loc 1 55 5 discriminator 3 view .LVU160
	movslq	%esi, %rax
	.loc 1 57 22 discriminator 3 view .LVU161
	vdivsd	%xmm2, %xmm0, %xmm7
	.loc 1 56 14 discriminator 3 view .LVU162
	vmovsd	%xmm2, -24(%r10,%rsi,8)
	.loc 1 57 9 is_stmt 1 discriminator 3 view .LVU163
	.loc 1 58 45 is_stmt 0 discriminator 3 view .LVU164
	vdivsd	%xmm2, %xmm6, %xmm6
	.loc 1 56 28 discriminator 3 view .LVU165
	vmovsd	-8(%rcx,%rsi,8), %xmm2
	.loc 1 56 30 discriminator 3 view .LVU166
	vsubsd	%xmm1, %xmm2, %xmm1
	.loc 1 57 15 discriminator 3 view .LVU167
	vmovsd	%xmm7, -24(%r11,%rsi,8)
	.loc 1 58 9 is_stmt 1 discriminator 3 view .LVU168
	.loc 1 56 49 is_stmt 0 discriminator 3 view .LVU169
	vmulsd	%xmm7, %xmm0, %xmm7
	.loc 1 56 40 discriminator 3 view .LVU170
	vfmsub132sd	%xmm3, %xmm7, %xmm1
	.loc 1 56 14 discriminator 3 view .LVU171
	vmovsd	%xmm1, -16(%r10,%rsi,8)
	.loc 1 57 22 discriminator 3 view .LVU172
	vdivsd	%xmm1, %xmm9, %xmm7
	.loc 1 58 26 discriminator 3 view .LVU173
	vfnmadd213sd	-16(%r8,%rsi,8), %xmm6, %xmm0
	.loc 1 58 14 discriminator 3 view .LVU174
	vmovsd	%xmm6, -24(%r15,%rsi,8)
	.loc 1 55 5 is_stmt 1 discriminator 3 view .LVU175
.LVL34:
	.loc 1 55 23 discriminator 3 view .LVU176
	.loc 1 56 9 discriminator 3 view .LVU177
	.loc 1 57 9 discriminator 3 view .LVU178
	.loc 1 58 45 is_stmt 0 discriminator 3 view .LVU179
	vdivsd	%xmm1, %xmm0, %xmm0
	.loc 1 56 28 discriminator 3 view .LVU180
	vmovsd	(%rcx,%rsi,8), %xmm1
	.loc 1 56 30 discriminator 3 view .LVU181
	vsubsd	%xmm5, %xmm1, %xmm5
	.loc 1 57 15 discriminator 3 view .LVU182
	vmovsd	%xmm7, -16(%r11,%rsi,8)
	.loc 1 58 9 is_stmt 1 discriminator 3 view .LVU183
	.loc 1 56 49 is_stmt 0 discriminator 3 view .LVU184
	vmulsd	%xmm9, %xmm7, %xmm7
	.loc 1 56 40 discriminator 3 view .LVU185
	vfmsub132sd	%xmm3, %xmm7, %xmm5
	.loc 1 56 14 discriminator 3 view .LVU186
	vmovsd	%xmm5, -8(%r10,%rsi,8)
	.loc 1 57 22 discriminator 3 view .LVU187
	vdivsd	%xmm5, %xmm8, %xmm7
	.loc 1 58 14 discriminator 3 view .LVU188
	vmovsd	%xmm0, -16(%r15,%rsi,8)
	.loc 1 55 5 is_stmt 1 discriminator 3 view .LVU189
.LVL35:
	.loc 1 55 23 discriminator 3 view .LVU190
	.loc 1 56 9 discriminator 3 view .LVU191
	.loc 1 57 9 discriminator 3 view .LVU192
	.loc 1 58 26 is_stmt 0 discriminator 3 view .LVU193
	vfnmadd213sd	-8(%r8,%rsi,8), %xmm9, %xmm0
	.loc 1 58 45 discriminator 3 view .LVU194
	vdivsd	%xmm5, %xmm0, %xmm6
	.loc 1 57 15 discriminator 3 view .LVU195
	vmovsd	%xmm7, -8(%r11,%rsi,8)
	.loc 1 58 9 is_stmt 1 discriminator 3 view .LVU196
	.loc 1 58 14 is_stmt 0 discriminator 3 view .LVU197
	vmovsd	%xmm6, -8(%r15,%rsi,8)
	.loc 1 55 5 is_stmt 1 discriminator 3 view .LVU198
.LVL36:
	.loc 1 55 23 discriminator 3 view .LVU199
	addq	$3, %rsi
	leal	-2(%rsi), %edi
	cmpl	%edi, %r9d
	jg	.L17
.LVL37:
	.p2align 4,,10
	.p2align 3
.L15:
	.loc 1 56 9 view .LVU200
	.loc 1 56 47 is_stmt 0 view .LVU201
	vmovsd	-8(%r12,%rax,8), %xmm1
	.loc 1 56 30 view .LVU202
	vmovsd	8(%rcx,%rax,8), %xmm0
	.loc 1 56 49 view .LVU203
	vmulsd	-8(%r11,%rax,8), %xmm1, %xmm2
	.loc 1 56 30 view .LVU204
	vsubsd	-8(%rcx,%rax,8), %xmm0, %xmm0
	.loc 1 58 26 view .LVU205
	vmovsd	(%r8,%rax,8), %xmm7
	vfnmadd132sd	-8(%r15,%rax,8), %xmm7, %xmm1
	.loc 1 56 40 view .LVU206
	vfmsub132sd	%xmm3, %xmm2, %xmm0
	.loc 1 57 22 view .LVU207
	vmovsd	(%r12,%rax,8), %xmm2
	.loc 1 58 45 view .LVU208
	vdivsd	%xmm0, %xmm1, %xmm1
	.loc 1 56 14 view .LVU209
	vmovsd	%xmm0, (%r10,%rax,8)
	.loc 1 57 9 is_stmt 1 view .LVU210
	.loc 1 57 22 is_stmt 0 view .LVU211
	vdivsd	%xmm0, %xmm2, %xmm2
	.loc 1 58 14 view .LVU212
	vmovsd	%xmm1, (%r15,%rax,8)
	.loc 1 57 15 view .LVU213
	vmovsd	%xmm2, (%r11,%rax,8)
	.loc 1 58 9 is_stmt 1 view .LVU214
	.loc 1 55 5 view .LVU215
.LVL38:
	.loc 1 55 23 view .LVU216
	incq	%rax
.LVL39:
	.loc 1 55 23 is_stmt 0 view .LVU217
	cmpl	%eax, %edx
	jg	.L15
.LVL40:
.L16:
	.loc 1 55 23 view .LVU218
.LBE71:
	.loc 1 61 5 is_stmt 1 view .LVU219
.LBB72:
	.loc 1 65 14 is_stmt 0 view .LVU220
	movslq	80(%rsp), %rax
.LBE72:
	.loc 1 62 12 view .LVU221
	movq	$0x000000000, -8(%r15,%r13)
	.loc 1 63 20 view .LVU222
	movq	$0x000000000, -8(%r14,%r13)
	.loc 1 61 12 view .LVU223
	vmovsd	%xmm4, -8(%r10,%r13)
	.loc 1 62 5 is_stmt 1 view .LVU224
	.loc 1 63 5 view .LVU225
	.loc 1 65 5 view .LVU226
.LVL41:
.LBB73:
	.loc 1 65 27 view .LVU227
	testl	%eax, %eax
	js	.L19
	.loc 1 65 27 is_stmt 0 view .LVU228
	leaq	(%rbx,%r13), %rdx
	addq	%r14, %r13
	cmpl	$3, 88(%rsp)
	vmovsd	.LC3(%rip), %xmm5
	jle	.L20
	movl	88(%rsp), %eax
.LVL42:
	.loc 1 65 27 view .LVU229
	movq	40(%rsp), %rcx
	subl	$4, %eax
	vmovsd	-8(%rdx), %xmm0
	movslq	%eax, %rdx
	shrl	%eax
	subq	$6, %rcx
	addq	%rax, %rax
	vmovsd	-8(%r13), %xmm2
	vmovapd	.LC2(%rip), %xmm3
	vmovsd	.LC3(%rip), %xmm5
	vmovapd	.LC6(%rip), %xmm7
	movq	56(%rsp), %rsi
	subq	%rax, %rcx
.LVL43:
.L21:
	.loc 1 66 9 is_stmt 1 discriminator 3 view .LVU230
	.loc 1 66 29 is_stmt 0 discriminator 3 view .LVU231
	vmovsd	16(%r11,%rdx,8), %xmm4
	vmovupd	8(%r11,%rdx,8), %xmm9
	vfnmadd213sd	16(%r15,%rdx,8), %xmm2, %xmm4
	.loc 1 67 45 discriminator 3 view .LVU232
	vmovupd	8(%r12,%rdx,8), %xmm8
	.loc 1 67 22 discriminator 3 view .LVU233
	movq	64(%rsp), %rax
	vunpcklpd	%xmm2, %xmm4, %xmm1
	.loc 1 66 29 discriminator 3 view .LVU234
	vfnmadd213pd	8(%r15,%rdx,8), %xmm1, %xmm9
	.loc 1 67 72 discriminator 3 view .LVU235
	vmovapd	%xmm1, %xmm6
	.loc 1 67 32 discriminator 3 view .LVU236
	vmovsd	16(%rbx,%rdx,8), %xmm1
	.loc 1 68 40 discriminator 3 view .LVU237
	vsubsd	%xmm4, %xmm2, %xmm2
	.loc 1 67 32 discriminator 3 view .LVU238
	vunpcklpd	%xmm0, %xmm1, %xmm1
	.loc 1 67 72 discriminator 3 view .LVU239
	vfmadd231pd	%xmm7, %xmm9, %xmm6
	.loc 1 67 9 is_stmt 1 discriminator 3 view .LVU240
	.loc 1 67 32 is_stmt 0 discriminator 3 view .LVU241
	vsubpd	8(%rbx,%rdx,8), %xmm1, %xmm1
	.loc 1 66 22 discriminator 3 view .LVU242
	vmovupd	%xmm9, 8(%r14,%rdx,8)
	.loc 1 67 40 discriminator 3 view .LVU243
	vdivpd	%xmm8, %xmm1, %xmm1
	.loc 1 67 54 discriminator 3 view .LVU244
	vmulpd	%xmm8, %xmm6, %xmm0
	.loc 1 68 63 discriminator 3 view .LVU245
	vmulsd	%xmm5, %xmm8, %xmm8
	.loc 1 67 94 discriminator 3 view .LVU246
	vdivpd	%xmm3, %xmm0, %xmm0
	.loc 1 67 47 discriminator 3 view .LVU247
	vsubpd	%xmm0, %xmm1, %xmm1
	.loc 1 68 9 is_stmt 1 discriminator 3 view .LVU248
	.loc 1 68 63 is_stmt 0 discriminator 3 view .LVU249
	vmulsd	16(%r12,%rdx,8), %xmm5, %xmm0
	.loc 1 67 22 discriminator 3 view .LVU250
	vmovupd	%xmm1, 8(%rax,%rdx,8)
	.loc 1 65 5 discriminator 3 view .LVU251
	movslq	%edx, %rax
	.loc 1 68 56 discriminator 3 view .LVU252
	vdivsd	%xmm0, %xmm2, %xmm2
	.loc 1 67 37 discriminator 3 view .LVU253
	vmovsd	8(%rbx,%rdx,8), %xmm0
	.loc 1 68 22 discriminator 3 view .LVU254
	vmovsd	%xmm2, 16(%rsi,%rdx,8)
	.loc 1 65 5 is_stmt 1 discriminator 3 view .LVU255
.LVL44:
	.loc 1 65 27 discriminator 3 view .LVU256
	.loc 1 66 9 discriminator 3 view .LVU257
	.loc 1 67 9 discriminator 3 view .LVU258
	.loc 1 68 9 discriminator 3 view .LVU259
	.loc 1 66 29 is_stmt 0 discriminator 3 view .LVU260
	vmovsd	8(%r11,%rdx,8), %xmm2
	vfnmadd213sd	8(%r15,%rdx,8), %xmm4, %xmm2
	.loc 1 68 40 discriminator 3 view .LVU261
	vsubsd	%xmm2, %xmm4, %xmm4
	.loc 1 68 56 discriminator 3 view .LVU262
	vdivsd	%xmm8, %xmm4, %xmm4
	.loc 1 68 22 discriminator 3 view .LVU263
	vmovsd	%xmm4, 8(%rsi,%rdx,8)
	.loc 1 65 5 is_stmt 1 discriminator 3 view .LVU264
.LVL45:
	.loc 1 65 27 discriminator 3 view .LVU265
	subq	$2, %rdx
	cmpq	%rcx, %rdx
	jne	.L21
.L20:
	.loc 1 65 27 is_stmt 0 discriminator 3 view .LVU266
	vmovsd	.LC4(%rip), %xmm3
	movq	64(%rsp), %rdx
	movq	56(%rsp), %rcx
.LVL46:
	.p2align 4,,10
	.p2align 3
.L22:
	.loc 1 66 9 is_stmt 1 view .LVU267
	.loc 1 66 52 is_stmt 0 view .LVU268
	vmovsd	8(%r14,%rax,8), %xmm0
	.loc 1 66 29 view .LVU269
	vmovsd	(%r11,%rax,8), %xmm6
	.loc 1 67 45 view .LVU270
	vmovsd	(%r12,%rax,8), %xmm2
	.loc 1 66 29 view .LVU271
	vfnmadd213sd	(%r15,%rax,8), %xmm0, %xmm6
	.loc 1 67 32 view .LVU272
	vmovsd	8(%rbx,%rax,8), %xmm1
	vsubsd	(%rbx,%rax,8), %xmm1, %xmm1
	.loc 1 67 72 view .LVU273
	vmovsd	%xmm6, %xmm6, %xmm4
	vfmadd132sd	%xmm3, %xmm0, %xmm4
	.loc 1 67 40 view .LVU274
	vdivsd	%xmm2, %xmm1, %xmm1
	.loc 1 68 40 view .LVU275
	vsubsd	%xmm6, %xmm0, %xmm0
	.loc 1 66 22 view .LVU276
	vmovsd	%xmm6, (%r14,%rax,8)
	.loc 1 67 9 is_stmt 1 view .LVU277
	.loc 1 67 54 is_stmt 0 view .LVU278
	vmulsd	%xmm4, %xmm2, %xmm4
	.loc 1 68 63 view .LVU279
	vmulsd	%xmm5, %xmm2, %xmm2
	.loc 1 67 94 view .LVU280
	vdivsd	%xmm5, %xmm4, %xmm4
	.loc 1 68 56 view .LVU281
	vdivsd	%xmm2, %xmm0, %xmm0
	.loc 1 67 47 view .LVU282
	vsubsd	%xmm4, %xmm1, %xmm1
	.loc 1 67 22 view .LVU283
	vmovsd	%xmm1, (%rdx,%rax,8)
	.loc 1 68 9 is_stmt 1 view .LVU284
	.loc 1 68 22 is_stmt 0 view .LVU285
	vmovsd	%xmm0, (%rcx,%rax,8)
	.loc 1 65 5 is_stmt 1 view .LVU286
.LVL47:
	.loc 1 65 27 view .LVU287
	decq	%rax
.LVL48:
	.loc 1 65 27 is_stmt 0 view .LVU288
	testl	%eax, %eax
	jns	.L22
.L19:
	.loc 1 65 27 view .LVU289
.LBE73:
	.loc 1 71 9 view .LVU290
	movq	%r12, %rdi
	movq	%r10, 64(%rsp)
	movq	%r8, 80(%rsp)
	movq	%r11, 88(%rsp)
.LVL49:
	.loc 1 71 5 is_stmt 1 view .LVU291
	.loc 1 71 9 is_stmt 0 view .LVU292
	call	free@PLT
.LVL50:
	.loc 1 72 5 is_stmt 1 view .LVU293
	.loc 1 72 9 is_stmt 0 view .LVU294
	movq	80(%rsp), %rdi
	call	free@PLT
.LVL51:
	.loc 1 73 5 is_stmt 1 view .LVU295
	.loc 1 73 9 is_stmt 0 view .LVU296
	movq	64(%rsp), %rdi
	call	free@PLT
.LVL52:
	.loc 1 74 5 is_stmt 1 view .LVU297
	.loc 1 74 9 is_stmt 0 view .LVU298
	movq	88(%rsp), %rdi
	call	free@PLT
.LVL53:
	.loc 1 75 5 is_stmt 1 view .LVU299
	.loc 1 75 9 is_stmt 0 view .LVU300
	movq	%r15, %rdi
	call	free@PLT
.LVL54:
	.loc 1 77 5 is_stmt 1 view .LVU301
	.loc 1 78 1 is_stmt 0 view .LVU302
	movq	72(%rsp), %rax
	leaq	-40(%rbp), %rsp
.LVL55:
	.loc 1 78 1 view .LVU303
	popq	%rbx
.LVL56:
	.loc 1 78 1 view .LVU304
	popq	%r12
.LVL57:
	.loc 1 78 1 view .LVU305
	popq	%r13
	popq	%r14
	popq	%r15
.LVL58:
	.loc 1 78 1 view .LVU306
	popq	%rbp
	.cfi_remember_state
	.cfi_def_cfa 7, 8
.LVL59:
	.loc 1 78 1 view .LVU307
	ret
.LVL60:
	.p2align 4,,10
	.p2align 3
.L46:
	.cfi_restore_state
	.loc 1 78 1 view .LVU308
	vzeroupper
	jmp	.L12
.LVL61:
	.p2align 4,,10
	.p2align 3
.L45:
	.loc 1 78 1 view .LVU309
	vzeroupper
	jmp	.L6
.LVL62:
	.p2align 4,,10
	.p2align 3
.L3:
	.loc 1 41 5 is_stmt 1 view .LVU310
	.loc 1 41 36 is_stmt 0 view .LVU311
	movq	%r15, %rdi
	call	malloc@PLT
.LVL63:
	.loc 1 41 36 view .LVU312
	movq	%rax, %r8
.LVL64:
	.loc 1 43 5 is_stmt 1 view .LVU313
.LBB74:
	.loc 1 43 23 view .LVU314
	movl	88(%rsp), %eax
.LVL65:
	.loc 1 43 23 is_stmt 0 view .LVU315
	subl	$2, %eax
	movl	%eax, 80(%rsp)
.LVL66:
.L9:
	.loc 1 43 23 view .LVU316
.LBE74:
	.loc 1 47 32 view .LVU317
	movq	%r13, %rdi
	movq	%r8, 24(%rsp)
.LVL67:
	.loc 1 47 5 is_stmt 1 view .LVU318
	.loc 1 47 32 is_stmt 0 view .LVU319
	call	malloc@PLT
.LVL68:
	.loc 1 48 33 view .LVU320
	movq	%r15, %rdi
	.loc 1 47 32 view .LVU321
	movq	%rax, 32(%rsp)
.LVL69:
	.loc 1 48 5 is_stmt 1 view .LVU322
	.loc 1 48 33 is_stmt 0 view .LVU323
	call	malloc@PLT
.LVL70:
	.loc 1 49 32 view .LVU324
	movq	%r13, %rdi
	.loc 1 48 33 view .LVU325
	movq	%rax, 48(%rsp)
.LVL71:
	.loc 1 49 5 is_stmt 1 view .LVU326
	.loc 1 49 32 is_stmt 0 view .LVU327
	call	malloc@PLT
.LVL72:
	.loc 1 51 10 view .LVU328
	vmovsd	.LC5(%rip), %xmm4
	movq	32(%rsp), %r10
	.loc 1 52 11 view .LVU329
	movq	48(%rsp), %r11
	.loc 1 53 10 view .LVU330
	movq	$0x000000000, (%rax)
	.loc 1 52 11 view .LVU331
	movq	$0x000000000, (%r11)
	movq	24(%rsp), %r8
	.loc 1 49 32 view .LVU332
	movq	%rax, %r15
.LVL73:
	.loc 1 51 5 is_stmt 1 view .LVU333
	.loc 1 51 10 is_stmt 0 view .LVU334
	vmovsd	%xmm4, (%r10)
	.loc 1 52 5 is_stmt 1 view .LVU335
	.loc 1 53 5 view .LVU336
	.loc 1 55 5 view .LVU337
.LVL74:
.LBB75:
	.loc 1 55 23 view .LVU338
	jmp	.L16
.LVL75:
.L24:
	.loc 1 55 23 is_stmt 0 view .LVU339
.LBE75:
.LBB76:
	.loc 1 37 23 view .LVU340
	xorl	%esi, %esi
	.loc 1 37 14 view .LVU341
	xorl	%eax, %eax
	jmp	.L4
.LVL76:
.L25:
	.loc 1 37 14 view .LVU342
.LBE76:
.LBB77:
	.loc 1 43 23 view .LVU343
	xorl	%esi, %esi
	.loc 1 43 14 view .LVU344
	movl	$1, %eax
	jmp	.L10
.LBE77:
	.cfi_endproc
.LFE2515:
	.size	_Z11spline_initPdS_i, .-_Z11spline_initPdS_i
	.p2align 4
	.globl	_Z11spline_evalP6Splined
	.type	_Z11spline_evalP6Splined, @function
_Z11spline_evalP6Splined:
.LVL77:
.LFB2516:
	.loc 1 81 46 is_stmt 1 view -0
	.cfi_startproc
	.loc 1 81 46 is_stmt 0 view .LVU346
	endbr64
	.loc 1 82 5 is_stmt 1 view .LVU347
.LVL78:
	.loc 1 83 5 view .LVU348
	.loc 1 83 9 is_stmt 0 view .LVU349
	movl	40(%rdi), %eax
	.loc 1 87 29 view .LVU350
	movq	32(%rdi), %rcx
	.loc 1 83 9 view .LVU351
	leal	-2(%rax), %edx
.LVL79:
	.loc 1 84 5 is_stmt 1 view .LVU352
	.loc 1 84 18 view .LVU353
	movslq	%edx, %rsi
	leaq	0(,%rsi,8), %rax
	testl	%edx, %edx
	jg	.L50
	jmp	.L54
	.p2align 4,,10
	.p2align 3
.L51:
	.loc 1 85 9 view .LVU354
.LVL80:
	.loc 1 84 18 view .LVU355
	subq	$8, %rax
	decl	%edx
.LVL81:
	.loc 1 84 18 is_stmt 0 view .LVU356
	je	.L55
.L50:
	.loc 1 84 36 discriminator 1 view .LVU357
	vmovsd	(%rcx,%rax), %xmm1
	.loc 1 84 18 discriminator 1 view .LVU358
	vcomisd	%xmm0, %xmm1
	ja	.L51
.L49:
	.loc 1 87 5 is_stmt 1 view .LVU359
	.loc 1 88 38 is_stmt 0 view .LVU360
	movq	8(%rdi), %rcx
	.loc 1 87 12 view .LVU361
	vsubsd	%xmm1, %xmm0, %xmm1
.LVL82:
	.loc 1 88 5 is_stmt 1 view .LVU362
	.loc 1 88 23 is_stmt 0 view .LVU363
	movq	(%rdi), %rdx
.LVL83:
	.loc 1 88 25 view .LVU364
	vmovsd	(%rcx,%rax), %xmm0
.LVL84:
	.loc 1 88 25 view .LVU365
	vfmadd213sd	(%rdx,%rax), %xmm1, %xmm0
	.loc 1 88 58 view .LVU366
	movq	16(%rdi), %rdx
	.loc 1 88 60 view .LVU367
	vmulsd	(%rdx,%rax), %xmm1, %xmm2
	.loc 1 88 83 view .LVU368
	movq	24(%rdi), %rdx
	.loc 1 88 45 view .LVU369
	vfmadd132sd	%xmm1, %xmm0, %xmm2
	.loc 1 88 85 view .LVU370
	vmulsd	(%rdx,%rax), %xmm1, %xmm0
	.loc 1 88 90 view .LVU371
	vmulsd	%xmm1, %xmm0, %xmm0
	.loc 1 88 97 view .LVU372
	vfmadd132sd	%xmm1, %xmm2, %xmm0
	.loc 1 89 1 view .LVU373
	ret
.LVL85:
	.p2align 4,,10
	.p2align 3
.L55:
	.loc 1 87 32 view .LVU374
	vmovsd	(%rcx), %xmm1
	xorl	%eax, %eax
	jmp	.L49
.L54:
	.loc 1 87 32 view .LVU375
	vmovsd	(%rcx,%rsi,8), %xmm1
	jmp	.L49
	.cfi_endproc
.LFE2516:
	.size	_Z11spline_evalP6Splined, .-_Z11spline_evalP6Splined
	.p2align 4
	.globl	_Z16spline_integrateP6Splineddi
	.type	_Z16spline_integrateP6Splineddi, @function
_Z16spline_integrateP6Splineddi:
.LVL86:
.LFB2517:
	.loc 1 92 77 is_stmt 1 view -0
	.cfi_startproc
	.loc 1 92 77 is_stmt 0 view .LVU377
	endbr64
	vxorps	%xmm4, %xmm4, %xmm4
	.loc 1 93 20 view .LVU378
	vsubsd	%xmm0, %xmm1, %xmm1
.LVL87:
	.loc 1 92 77 view .LVU379
	vmovsd	%xmm0, %xmm0, %xmm3
	.loc 1 93 27 view .LVU380
	vcvtsi2sdl	%esi, %xmm4, %xmm0
.LVL88:
	.loc 1 92 77 view .LVU381
	pushq	%r13
	.cfi_def_cfa_offset 16
	.cfi_offset 13, -16
	.loc 1 93 25 view .LVU382
	vdivsd	%xmm0, %xmm1, %xmm2
	.loc 1 92 77 view .LVU383
	pushq	%r12
	.cfi_def_cfa_offset 24
	.cfi_offset 12, -24
	pushq	%rbp
	.cfi_def_cfa_offset 32
	.cfi_offset 6, -32
	pushq	%rbx
	.cfi_def_cfa_offset 40
	.cfi_offset 3, -40
	subq	$56, %rsp
	.cfi_def_cfa_offset 96
	.loc 1 92 77 view .LVU384
	movq	%fs:40, %rax
	movq	%rax, 40(%rsp)
	xorl	%eax, %eax
	.loc 1 93 5 is_stmt 1 view .LVU385
	.loc 1 93 12 is_stmt 0 view .LVU386
	vmovsd	%xmm2, 8(%rsp)
	.loc 1 94 5 is_stmt 1 view .LVU387
.LVL89:
	.loc 1 95 5 view .LVU388
	.loc 1 99 5 view .LVU389
.LBB84:
	.loc 1 99 19 view .LVU390
	testl	%esi, %esi
	jle	.L63
	movl	40(%rdi), %ebp
	movq	32(%rdi), %r12
	movq	8(%rdi), %rbx
	movq	(%rdi), %r11
	movq	16(%rdi), %r10
	movq	24(%rdi), %r9
	vmovsd	.LC7(%rip), %xmm5
	movl	%esi, %r8d
	.loc 1 99 12 is_stmt 0 view .LVU391
	movl	$1, %r13d
.LBE84:
	.loc 1 94 12 view .LVU392
	vxorpd	%xmm6, %xmm6, %xmm6
.LVL90:
	.p2align 4,,10
	.p2align 3
.L61:
.LBB96:
.LBB85:
	.loc 1 100 9 is_stmt 1 discriminator 3 view .LVU393
	.loc 1 100 37 is_stmt 0 discriminator 3 view .LVU394
	leal	-1(%r13), %eax
	vcvtsi2sdl	%eax, %xmm4, %xmm1
	.loc 1 101 32 discriminator 3 view .LVU395
	vcvtsi2sdl	%r13d, %xmm4, %xmm0
.LBB86:
.LBB87:
	.loc 1 83 9 discriminator 3 view .LVU396
	leal	-2(%rbp), %edx
	.loc 1 87 31 discriminator 3 view .LVU397
	movslq	%edx, %rcx
.LBE87:
.LBE86:
	.loc 1 100 16 discriminator 3 view .LVU398
	vfmadd132sd	%xmm2, %xmm3, %xmm1
.LVL91:
	.loc 1 101 9 is_stmt 1 discriminator 3 view .LVU399
.LBB91:
.LBB88:
	.loc 1 87 32 is_stmt 0 discriminator 3 view .LVU400
	leaq	0(,%rcx,8), %rax
.LBE88:
.LBE91:
	.loc 1 101 16 discriminator 3 view .LVU401
	vfmadd132sd	%xmm0, %xmm3, %xmm2
.LVL92:
	.loc 1 102 9 is_stmt 1 discriminator 3 view .LVU402
.LBB92:
.LBI86:
	.loc 1 81 8 discriminator 3 view .LVU403
.LBB89:
	.loc 1 82 5 discriminator 3 view .LVU404
	.loc 1 83 5 discriminator 3 view .LVU405
	.loc 1 84 5 discriminator 3 view .LVU406
	.loc 1 84 18 discriminator 3 view .LVU407
	.loc 1 87 32 is_stmt 0 discriminator 3 view .LVU408
	vmovsd	(%r12,%rcx,8), %xmm0
	.loc 1 84 18 discriminator 3 view .LVU409
	testl	%edx, %edx
	jg	.L58
	jmp	.L59
	.p2align 4,,10
	.p2align 3
.L60:
	.loc 1 85 9 is_stmt 1 view .LVU410
.LVL93:
	.loc 1 84 18 view .LVU411
	subq	$8, %rax
	decl	%edx
.LVL94:
	.loc 1 84 18 is_stmt 0 view .LVU412
	je	.L68
.L58:
	.loc 1 84 36 view .LVU413
	vmovsd	(%r12,%rax), %xmm0
	.loc 1 84 18 view .LVU414
	vcomisd	%xmm1, %xmm0
	ja	.L60
.L59:
	.loc 1 87 5 is_stmt 1 view .LVU415
	.loc 1 87 12 is_stmt 0 view .LVU416
	vsubsd	%xmm0, %xmm1, %xmm1
.LVL95:
	.loc 1 88 5 is_stmt 1 view .LVU417
	.loc 1 88 25 is_stmt 0 view .LVU418
	vmovsd	(%rbx,%rax), %xmm7
	.loc 1 88 60 view .LVU419
	vmulsd	(%r10,%rax), %xmm1, %xmm0
	.loc 1 88 25 view .LVU420
	vfmadd213sd	(%r11,%rax), %xmm1, %xmm7
	.loc 1 88 45 view .LVU421
	vfmadd132sd	%xmm1, %xmm7, %xmm0
	.loc 1 88 85 view .LVU422
	vmulsd	(%r9,%rax), %xmm1, %xmm7
	.loc 1 88 90 view .LVU423
	vmulsd	%xmm1, %xmm7, %xmm7
	.loc 1 88 97 view .LVU424
	vfmadd132sd	%xmm7, %xmm0, %xmm1
.LVL96:
	.loc 1 88 97 view .LVU425
.LBE89:
.LBE92:
	.loc 1 103 37 view .LVU426
	vmovsd	%xmm2, %xmm2, %xmm0
	.loc 1 102 51 view .LVU427
	vmovsd	%xmm1, 16(%rsp)
	.loc 1 103 9 is_stmt 1 view .LVU428
	.loc 1 103 37 is_stmt 0 view .LVU429
	call	_Z11spline_evalP6Splined
.LVL97:
	.loc 1 103 53 view .LVU430
	vmovsd	%xmm0, 24(%rsp)
	.loc 1 104 9 is_stmt 1 view .LVU431
	.loc 1 107 9 view .LVU432
#APP
# 107 "src/main4.cpp" 1
	movsd 16(%rsp), %xmm0
movsd 24(%rsp), %xmm1
addsd %xmm1, %xmm0
mulsd 8(%rsp), %xmm0
movsd %xmm0, 32(%rsp)

# 0 "" 2
	.loc 1 118 9 view .LVU433
#NO_APP
.LBE85:
	.loc 1 99 5 is_stmt 0 view .LVU434
	incl	%r13d
.LVL98:
.LBB94:
	.loc 1 118 18 view .LVU435
	vfmadd231sd	32(%rsp), %xmm5, %xmm6
.LVL99:
	.loc 1 118 18 view .LVU436
.LBE94:
	.loc 1 99 5 is_stmt 1 view .LVU437
	.loc 1 99 19 view .LVU438
	cmpl	%r13d, %r8d
	jl	.L66
.LBB95:
	.loc 1 100 37 is_stmt 0 view .LVU439
	vmovsd	8(%rsp), %xmm2
	jmp	.L61
.LVL100:
	.p2align 4,,10
	.p2align 3
.L68:
.LBB93:
.LBB90:
	.loc 1 87 32 view .LVU440
	vmovsd	(%r12), %xmm0
	xorl	%eax, %eax
	jmp	.L59
.LVL101:
	.p2align 4,,10
	.p2align 3
.L66:
	.loc 1 87 32 view .LVU441
	vzeroupper
.LVL102:
.L56:
	.loc 1 87 32 view .LVU442
.LBE90:
.LBE93:
.LBE95:
.LBE96:
	.loc 1 122 1 view .LVU443
	movq	40(%rsp), %rax
	subq	%fs:40, %rax
	jne	.L69
	addq	$56, %rsp
	.cfi_remember_state
	.cfi_def_cfa_offset 40
	popq	%rbx
	.cfi_def_cfa_offset 32
	popq	%rbp
	.cfi_def_cfa_offset 24
	popq	%r12
	.cfi_def_cfa_offset 16
	vmovsd	%xmm6, %xmm6, %xmm0
	popq	%r13
	.cfi_def_cfa_offset 8
	ret
.LVL103:
.L63:
	.cfi_restore_state
	.loc 1 94 12 view .LVU444
	vxorpd	%xmm6, %xmm6, %xmm6
	.loc 1 121 5 is_stmt 1 view .LVU445
	.loc 1 121 12 is_stmt 0 view .LVU446
	jmp	.L56
.LVL104:
.L69:
	.loc 1 122 1 view .LVU447
	call	__stack_chk_fail@PLT
.LVL105:
	.loc 1 122 1 view .LVU448
	.cfi_endproc
.LFE2517:
	.size	_Z16spline_integrateP6Splineddi, .-_Z16spline_integrateP6Splineddi
	.p2align 4
	.globl	_Z1fd
	.type	_Z1fd, @function
_Z1fd:
.LVL106:
.LFB2518:
	.loc 1 125 20 is_stmt 1 view -0
	.cfi_startproc
	.loc 1 125 20 is_stmt 0 view .LVU450
	endbr64
	.loc 1 126 5 is_stmt 1 view .LVU451
	.loc 1 126 15 is_stmt 0 view .LVU452
	jmp	sin@PLT
.LVL107:
	.loc 1 126 15 view .LVU453
	.cfi_endproc
.LFE2518:
	.size	_Z1fd, .-_Z1fd
	.section	.rodata.str1.1,"aMS",@progbits,1
.LC10:
	.string	"Russian"
	.section	.text.startup,"ax",@progbits
	.p2align 4
	.globl	main
	.type	main, @function
main:
.LVL108:
.LFB2519:
	.loc 1 129 33 is_stmt 1 view -0
	.cfi_startproc
	.loc 1 129 33 is_stmt 0 view .LVU455
	endbr64
	leaq	8(%rsp), %r10
	.cfi_def_cfa 10, 0
	andq	$-32, %rsp
	pushq	-8(%r10)
	pushq	%rbp
	movq	%rsp, %rbp
	.cfi_escape 0x10,0x6,0x2,0x76,0
	pushq	%r14
	pushq	%r13
	pushq	%r12
	pushq	%r10
	.cfi_escape 0xf,0x3,0x76,0x60,0x6
	.cfi_escape 0x10,0xe,0x2,0x76,0x78
	.cfi_escape 0x10,0xd,0x2,0x76,0x70
	.cfi_escape 0x10,0xc,0x2,0x76,0x68
	pushq	%rbx
	subq	$72, %rsp
	.cfi_escape 0x10,0x3,0x2,0x76,0x58
	.loc 1 129 33 view .LVU456
	movl	%edi, -100(%rbp)
	movq	%rsi, -112(%rbp)
	.loc 1 131 14 view .LVU457
	movl	$6, %edi
.LVL109:
	.loc 1 131 14 view .LVU458
	leaq	.LC10(%rip), %rsi
.LVL110:
	.loc 1 129 33 view .LVU459
	movq	%fs:40, %rax
	movq	%rax, -56(%rbp)
	xorl	%eax, %eax
	.loc 1 130 5 is_stmt 1 view .LVU460
.LVL111:
	.loc 1 131 5 view .LVU461
	.loc 1 131 14 is_stmt 0 view .LVU462
	call	setlocale@PLT
.LVL112:
	.loc 1 134 5 is_stmt 1 view .LVU463
	.loc 1 135 5 view .LVU464
	.loc 1 136 5 view .LVU465
	.loc 1 137 5 view .LVU466
	.loc 1 137 12 is_stmt 0 view .LVU467
	leaq	-4096(%rsp), %rax
	cmpq	%rax, %rsp
	je	.L73
.L96:
	subq	$4096, %rsp
	orq	$0, 4088(%rsp)
	cmpq	%rax, %rsp
	jne	.L96
.L73:
	subq	$3920, %rsp
	orq	$0, 3912(%rsp)
	movl	$3, %eax
	shrx	%rax, %rsp, %rdx
	movq	%rsp, %r12
.LVL113:
	.loc 1 138 5 is_stmt 1 view .LVU468
	.loc 1 138 12 is_stmt 0 view .LVU469
	leaq	-4096(%rsp), %rax
.LVL114:
.L75:
	.loc 1 138 12 view .LVU470
	cmpq	%rax, %rsp
	je	.L76
	subq	$4096, %rsp
	orq	$0, 4088(%rsp)
	jmp	.L75
.L76:
	subq	$3920, %rsp
	orq	$0, 3912(%rsp)
	movl	$3, %eax
	.loc 1 139 10 view .LVU471
	vmovdqa	.LC8(%rip), %ymm2
	vmovdqa	.LC11(%rip), %ymm7
	vmovdqa	.LC12(%rip), %ymm6
	vmovapd	.LC13(%rip), %ymm5
	vmovapd	.LC14(%rip), %ymm4
	movq	$0x000000000, 0(,%rdx,8)
	.loc 1 138 12 view .LVU472
	shrx	%rax, %rsp, %rcx
	movq	%rsp, %r13
.LVL115:
	.loc 1 139 5 is_stmt 1 view .LVU473
	.loc 1 142 5 view .LVU474
.LBB138:
	.loc 1 142 23 view .LVU475
	leaq	8(%r12), %rax
	leaq	8008(%r12), %rdx
	.loc 1 143 20 is_stmt 0 view .LVU476
	vxorpd	%xmm3, %xmm3, %xmm3
.LVL116:
	.p2align 4,,10
	.p2align 3
.L78:
	.loc 1 143 20 view .LVU477
	vmovdqa	%ymm2, %ymm0
	.loc 1 143 25 discriminator 3 view .LVU478
	vpaddd	%ymm6, %ymm0, %ymm0
	.loc 1 143 30 discriminator 3 view .LVU479
	vcvtdq2pd	%xmm0, %ymm1
	vextracti128	$0x1, %ymm0, %xmm0
	vmulpd	%ymm5, %ymm1, %ymm1
	vcvtdq2pd	%xmm0, %ymm0
	vmulpd	%ymm5, %ymm0, %ymm0
	addq	$64, %rax
	vpaddd	%ymm7, %ymm2, %ymm2
	.loc 1 143 9 is_stmt 1 discriminator 3 view .LVU480
	.loc 1 143 40 is_stmt 0 discriminator 3 view .LVU481
	vdivpd	%ymm4, %ymm1, %ymm1
	vdivpd	%ymm4, %ymm0, %ymm0
	.loc 1 143 20 discriminator 3 view .LVU482
	vaddpd	%ymm3, %ymm1, %ymm1
	.loc 1 143 16 discriminator 3 view .LVU483
	vmovupd	%ymm1, -64(%rax)
	.loc 1 143 20 discriminator 3 view .LVU484
	vaddpd	%ymm3, %ymm0, %ymm0
	.loc 1 143 16 discriminator 3 view .LVU485
	vmovupd	%ymm0, -32(%rax)
	.loc 1 142 5 is_stmt 1 discriminator 3 view .LVU486
	.loc 1 142 23 discriminator 3 view .LVU487
	cmpq	%rdx, %rax
	jne	.L78
.LVL117:
	.loc 1 142 23 is_stmt 0 discriminator 3 view .LVU488
.LBE138:
.LBB139:
	.loc 1 147 9 is_stmt 1 view .LVU489
.LBB140:
.LBI140:
	.loc 1 125 8 view .LVU490
.LBB141:
	.loc 1 126 5 view .LVU491
	.loc 1 126 5 is_stmt 0 view .LVU492
.LBE141:
.LBE140:
	.loc 1 147 14 view .LVU493
	movl	$8, %ebx
	movq	$0x000000000, 0(,%rcx,8)
	.loc 1 146 5 is_stmt 1 view .LVU494
.LVL118:
	.loc 1 146 23 view .LVU495
	vzeroupper
.LVL119:
	.p2align 4,,10
	.p2align 3
.L79:
.LBB144:
.LBB142:
	.loc 1 126 15 is_stmt 0 view .LVU496
	vmovsd	(%r12,%rbx), %xmm0
	call	sin@PLT
.LVL120:
	.loc 1 126 15 view .LVU497
.LBE142:
.LBE144:
	.loc 1 147 9 is_stmt 1 view .LVU498
.LBB145:
	.loc 1 125 8 view .LVU499
.LBB143:
	.loc 1 126 5 view .LVU500
	.loc 1 126 5 is_stmt 0 view .LVU501
.LBE143:
.LBE145:
	.loc 1 147 14 view .LVU502
	vmovsd	%xmm0, 0(%r13,%rbx)
	.loc 1 146 5 is_stmt 1 view .LVU503
.LVL121:
	.loc 1 146 23 view .LVU504
	addq	$8, %rbx
.LVL122:
	.loc 1 146 23 is_stmt 0 view .LVU505
	cmpq	$8000, %rbx
	jne	.L79
.LBE139:
	.loc 1 150 5 is_stmt 1 view .LVU506
	.loc 1 150 43 is_stmt 0 view .LVU507
	call	_ZNSt6chrono3_V212steady_clock3nowEv@PLT
.LVL123:
	.loc 1 152 33 view .LVU508
	movl	$1001, %edx
	movq	%r13, %rsi
	movq	%r12, %rdi
	.loc 1 156 18 view .LVU509
	leaq	ompi_mpi_comm_world(%rip), %r13
	.loc 1 150 43 view .LVU510
	movq	%rax, %rbx
.LVL124:
	.loc 1 152 5 is_stmt 1 view .LVU511
	.loc 1 152 33 is_stmt 0 view .LVU512
	call	_Z11spline_initPdS_i
.LVL125:
	.loc 1 154 13 view .LVU513
	leaq	-112(%rbp), %rsi
	leaq	-100(%rbp), %rdi
	.loc 1 152 33 view .LVU514
	movq	%rax, %r12
.LVL126:
	.loc 1 154 5 is_stmt 1 view .LVU515
	.loc 1 154 13 is_stmt 0 view .LVU516
	call	MPI_Init@PLT
.LVL127:
	.loc 1 155 5 is_stmt 1 view .LVU517
	.loc 1 156 5 view .LVU518
	.loc 1 156 18 is_stmt 0 view .LVU519
	leaq	-96(%rbp), %rsi
	movq	%r13, %rdi
	call	MPI_Comm_rank@PLT
.LVL128:
	.loc 1 157 5 is_stmt 1 view .LVU520
	.loc 1 157 18 is_stmt 0 view .LVU521
	leaq	-92(%rbp), %rsi
	movq	%r13, %rdi
	call	MPI_Comm_size@PLT
.LVL129:
	.loc 1 159 5 is_stmt 1 view .LVU522
	.loc 1 160 5 view .LVU523
	.loc 1 160 21 is_stmt 0 view .LVU524
	movl	$999, %eax
	cltd
	idivl	-92(%rbp)
	vmovsd	.LC9(%rip), %xmm5
	vxorpd	%xmm4, %xmm4, %xmm4
	.loc 1 160 7 view .LVU525
	leal	1(%rax), %r10d
.LVL130:
	.loc 1 161 5 is_stmt 1 view .LVU526
	.loc 1 161 10 is_stmt 0 view .LVU527
	movl	-96(%rbp), %eax
	imull	%r10d, %eax
.LVL131:
	.loc 1 162 5 is_stmt 1 view .LVU528
	.loc 1 164 5 view .LVU529
	.loc 1 162 10 is_stmt 0 view .LVU530
	addl	%eax, %r10d
.LVL132:
.LBB146:
	.loc 1 164 17 view .LVU531
	movslq	%eax, %r9
.LVL133:
	.loc 1 164 29 is_stmt 1 view .LVU532
	.loc 1 164 47 is_stmt 0 view .LVU533
	movl	$1000, %eax
.LVL134:
	.loc 1 164 47 view .LVU534
	cmpl	%eax, %r10d
	cmovg	%eax, %r10d
.LVL135:
	.loc 1 164 47 view .LVU535
	movslq	%r10d, %r10
	.loc 1 164 29 view .LVU536
	cmpq	%r10, %r9
	jnb	.L85
.LVL136:
	.p2align 4,,10
	.p2align 3
.L80:
.LBB147:
	.loc 1 165 9 is_stmt 1 view .LVU537
.LBB148:
.LBI148:
	.loc 1 92 8 view .LVU538
.LBB149:
	.loc 1 93 5 view .LVU539
	.loc 1 93 12 is_stmt 0 view .LVU540
	vmovsd	%xmm5, -88(%rbp)
	.loc 1 94 5 is_stmt 1 view .LVU541
.LVL137:
	.loc 1 95 5 view .LVU542
	.loc 1 99 5 view .LVU543
.LBB150:
	.loc 1 99 19 view .LVU544
.LBE150:
	.loc 1 93 12 is_stmt 0 view .LVU545
	vmovsd	%xmm5, %xmm5, %xmm2
.LBB152:
	.loc 1 99 12 view .LVU546
	movl	$1, %r8d
	jmp	.L84
.LVL138:
	.p2align 4,,10
	.p2align 3
.L97:
.LBB151:
	.loc 1 100 37 view .LVU547
	vmovsd	-88(%rbp), %xmm2
.LVL139:
.L84:
	.loc 1 100 9 is_stmt 1 view .LVU548
	.loc 1 100 37 is_stmt 0 view .LVU549
	leal	-1(%r8), %eax
	vxorpd	%xmm6, %xmm6, %xmm6
	vcvtsi2sdl	%eax, %xmm6, %xmm0
	.loc 1 101 32 view .LVU550
	vcvtsi2sdl	%r8d, %xmm6, %xmm1
	.loc 1 102 36 view .LVU551
	movq	%r12, %rdi
	.loc 1 100 16 view .LVU552
	vfmadd132sd	%xmm2, %xmm4, %xmm0
.LVL140:
	.loc 1 101 9 is_stmt 1 view .LVU553
	.loc 1 101 16 is_stmt 0 view .LVU554
	vmovsd	%xmm1, %xmm1, %xmm3
	vfmadd132sd	%xmm2, %xmm4, %xmm3
.LVL141:
	.loc 1 102 9 is_stmt 1 view .LVU555
	.loc 1 102 36 is_stmt 0 view .LVU556
	call	_Z11spline_evalP6Splined
.LVL142:
	.loc 1 102 51 view .LVU557
	vmovsd	%xmm0, -80(%rbp)
	.loc 1 103 9 is_stmt 1 view .LVU558
	.loc 1 103 37 is_stmt 0 view .LVU559
	vmovsd	%xmm3, %xmm3, %xmm0
	call	_Z11spline_evalP6Splined
.LVL143:
	.loc 1 103 53 view .LVU560
	vmovsd	%xmm0, -72(%rbp)
	.loc 1 104 9 is_stmt 1 view .LVU561
	.loc 1 107 9 view .LVU562
#APP
# 107 "src/main4.cpp" 1
	movsd -80(%rbp), %xmm0
movsd -72(%rbp), %xmm1
addsd %xmm1, %xmm0
mulsd -88(%rbp), %xmm0
movsd %xmm0, -64(%rbp)

# 0 "" 2
	.loc 1 118 9 view .LVU563
	.loc 1 118 9 is_stmt 0 view .LVU564
#NO_APP
.LBE151:
	.loc 1 99 5 is_stmt 1 view .LVU565
	incl	%r8d
.LVL144:
	.loc 1 99 19 view .LVU566
	cmpl	$1002, %r8d
	jne	.L97
.LVL145:
	.loc 1 99 19 is_stmt 0 view .LVU567
.LBE152:
	.loc 1 121 5 is_stmt 1 view .LVU568
	.loc 1 121 5 is_stmt 0 view .LVU569
.LBE149:
.LBE148:
.LBE147:
	.loc 1 164 5 is_stmt 1 view .LVU570
	incq	%r9
.LVL146:
	.loc 1 164 29 view .LVU571
	cmpq	%r10, %r9
	jb	.L80
	vzeroupper
.LVL147:
.L85:
	.loc 1 164 29 is_stmt 0 view .LVU572
.LBE146:
	.loc 1 166 5 is_stmt 1 view .LVU573
	.loc 1 166 17 is_stmt 0 view .LVU574
	call	MPI_Finalize@PLT
.LVL148:
	.loc 1 167 5 is_stmt 1 view .LVU575
	movl	-96(%rbp), %eax
	testl	%eax, %eax
	jne	.L82
	.loc 1 169 9 view .LVU576
	.loc 1 169 45 is_stmt 0 view .LVU577
	call	_ZNSt6chrono3_V212steady_clock3nowEv@PLT
.LVL149:
	.loc 1 170 9 is_stmt 1 view .LVU578
.LBB153:
.LBI153:
	.file 2 "/usr/include/c++/11/chrono"
	.loc 2 1042 7 view .LVU579
.LBB154:
.LBI154:
	.loc 2 660 7 view .LVU580
.LBB155:
.LBB156:
.LBI156:
	.loc 2 521 23 view .LVU581
	.loc 2 521 23 is_stmt 0 view .LVU582
.LBE156:
.LBE155:
.LBE154:
.LBE153:
.LBB159:
.LBI159:
	.loc 2 267 7 is_stmt 1 view .LVU583
.LBB160:
.LBB161:
.LBI161:
	.loc 2 211 4 view .LVU584
.LBB162:
.LBB163:
.LBI163:
	.loc 2 521 23 view .LVU585
	.loc 2 521 23 is_stmt 0 view .LVU586
.LBE163:
.LBE162:
.LBE161:
.LBE160:
.LBE159:
.LBB164:
.LBI164:
	.file 3 "/usr/include/c++/11/ostream"
	.loc 3 166 7 is_stmt 1 view .LVU587
.LBE164:
.LBB166:
.LBB158:
.LBB157:
	.loc 2 666 34 is_stmt 0 view .LVU588
	subq	%rbx, %rax
.LVL150:
	.loc 2 666 34 view .LVU589
	movq	%rax, %rsi
.LBE157:
.LBE158:
.LBE166:
.LBB167:
.LBB165:
	.loc 3 167 25 view .LVU590
	leaq	_ZSt4cout(%rip), %rdi
	call	_ZNSo9_M_insertIlEERSoT_@PLT
.LVL151:
	.loc 3 167 25 view .LVU591
	movq	%rax, %r13
.LVL152:
	.loc 3 167 25 view .LVU592
.LBE165:
.LBE167:
.LBB168:
.LBI168:
	.loc 3 108 7 is_stmt 1 view .LVU593
.LBB169:
.LBI169:
	.loc 3 684 5 view .LVU594
.LBB170:
	.loc 3 685 39 is_stmt 0 view .LVU595
	movq	(%rax), %rax
.LVL153:
	.loc 3 685 39 view .LVU596
	movq	-24(%rax), %rax
	movq	240(%r13,%rax), %r14
.LVL154:
.LBB171:
.LBI171:
	.file 4 "/usr/include/c++/11/bits/basic_ios.h"
	.loc 4 449 7 is_stmt 1 view .LVU597
.LBB172:
.LBI172:
	.loc 4 47 5 view .LVU598
.LBB173:
	.loc 4 49 7 is_stmt 0 view .LVU599
	testq	%r14, %r14
	je	.L98
.LVL155:
	.loc 4 49 7 view .LVU600
.LBE173:
.LBE172:
.LBB175:
.LBI175:
	.file 5 "/usr/include/c++/11/bits/locale_facets.h"
	.loc 5 875 7 is_stmt 1 view .LVU601
.LBB176:
	.loc 5 877 2 view .LVU602
	cmpb	$0, 56(%r14)
	je	.L87
	.loc 5 878 4 view .LVU603
	.loc 5 878 51 is_stmt 0 view .LVU604
	movsbl	67(%r14), %esi
.LVL156:
.L88:
	.loc 5 878 51 view .LVU605
.LBE176:
.LBE175:
.LBE171:
	.loc 3 685 19 view .LVU606
	movq	%r13, %rdi
	call	_ZNSo3putEc@PLT
.LVL157:
	movq	%rax, %rdi
.LVL158:
.LBB182:
.LBI182:
	.loc 3 706 5 is_stmt 1 view .LVU607
.LBB183:
	.loc 3 707 24 is_stmt 0 view .LVU608
	call	_ZNSo5flushEv@PLT
.LVL159:
.L82:
	.loc 3 707 24 view .LVU609
.LBE183:
.LBE182:
.LBE170:
.LBE169:
.LBE168:
	.loc 1 174 5 is_stmt 1 view .LVU610
	.loc 1 182 5 view .LVU611
	.loc 1 182 9 is_stmt 0 view .LVU612
	movq	(%r12), %rdi
	call	free@PLT
.LVL160:
	.loc 1 183 5 is_stmt 1 view .LVU613
	.loc 1 183 9 is_stmt 0 view .LVU614
	movq	8(%r12), %rdi
	call	free@PLT
.LVL161:
	.loc 1 184 5 is_stmt 1 view .LVU615
	.loc 1 184 9 is_stmt 0 view .LVU616
	movq	16(%r12), %rdi
	call	free@PLT
.LVL162:
	.loc 1 185 5 is_stmt 1 view .LVU617
	.loc 1 185 9 is_stmt 0 view .LVU618
	movq	24(%r12), %rdi
	call	free@PLT
.LVL163:
	.loc 1 186 5 is_stmt 1 view .LVU619
	.loc 1 186 9 is_stmt 0 view .LVU620
	movq	32(%r12), %rdi
	call	free@PLT
.LVL164:
	.loc 1 187 5 is_stmt 1 view .LVU621
	.loc 1 187 9 is_stmt 0 view .LVU622
	movq	%r12, %rdi
	call	free@PLT
.LVL165:
	.loc 1 189 5 is_stmt 1 view .LVU623
	.loc 1 190 1 is_stmt 0 view .LVU624
	movq	-56(%rbp), %rax
	subq	%fs:40, %rax
	jne	.L99
	leaq	-40(%rbp), %rsp
.LVL166:
	.loc 1 190 1 view .LVU625
	popq	%rbx
	popq	%r10
	.cfi_remember_state
	.cfi_def_cfa 10, 0
	popq	%r12
.LVL167:
	.loc 1 190 1 view .LVU626
	popq	%r13
	popq	%r14
	xorl	%eax, %eax
	popq	%rbp
	leaq	-8(%r10), %rsp
	.cfi_def_cfa 7, 8
	ret
.LVL168:
.L87:
	.cfi_restore_state
.LBB187:
.LBB186:
.LBB185:
.LBB184:
.LBB180:
.LBB179:
.LBB177:
.LBI177:
	.loc 5 875 7 is_stmt 1 view .LVU627
.LBB178:
	.loc 5 879 2 view .LVU628
	.loc 5 879 21 is_stmt 0 view .LVU629
	movq	%r14, %rdi
	call	_ZNKSt5ctypeIcE13_M_widen_initEv@PLT
.LVL169:
	.loc 5 880 2 is_stmt 1 view .LVU630
	.loc 5 880 23 is_stmt 0 view .LVU631
	movq	(%r14), %rax
	movl	$10, %esi
	movq	%r14, %rdi
	call	*48(%rax)
.LVL170:
	movsbl	%al, %esi
	.loc 5 880 27 view .LVU632
	jmp	.L88
.LVL171:
.L98:
	.loc 5 880 27 view .LVU633
.LBE178:
.LBE177:
.LBE179:
.LBE180:
.LBB181:
.LBB174:
	.loc 4 50 18 view .LVU634
	call	_ZSt16__throw_bad_castv@PLT
.LVL172:
.L99:
	.loc 4 50 18 view .LVU635
.LBE174:
.LBE181:
.LBE184:
.LBE185:
.LBE186:
.LBE187:
	.loc 1 190 1 view .LVU636
	call	__stack_chk_fail@PLT
.LVL173:
	.cfi_endproc
.LFE2519:
	.size	main, .-main
	.p2align 4
	.type	_GLOBAL__sub_I__Z11spline_initPdS_i, @function
_GLOBAL__sub_I__Z11spline_initPdS_i:
.LFB3196:
	.loc 1 190 1 is_stmt 1 view -0
	.cfi_startproc
	endbr64
.LVL174:
.LBB188:
.LBI188:
	.loc 1 190 1 view .LVU638
.LBE188:
	pushq	%rbp
	.cfi_def_cfa_offset 16
	.cfi_offset 6, -16
.LBB191:
.LBB189:
	.file 6 "/usr/include/c++/11/iostream"
	.loc 6 74 25 is_stmt 0 view .LVU639
	leaq	_ZStL8__ioinit(%rip), %rbp
	movq	%rbp, %rdi
	call	_ZNSt8ios_base4InitC1Ev@PLT
.LVL175:
	movq	_ZNSt8ios_base4InitD1Ev@GOTPCREL(%rip), %rdi
	movq	%rbp, %rsi
	leaq	__dso_handle(%rip), %rdx
.LBE189:
.LBE191:
	.loc 1 190 1 view .LVU640
	popq	%rbp
	.cfi_def_cfa_offset 8
.LBB192:
.LBB190:
	.loc 6 74 25 view .LVU641
	jmp	__cxa_atexit@PLT
.LVL176:
.LBE190:
.LBE192:
	.cfi_endproc
.LFE3196:
	.size	_GLOBAL__sub_I__Z11spline_initPdS_i, .-_GLOBAL__sub_I__Z11spline_initPdS_i
	.section	.init_array,"aw"
	.align 8
	.quad	_GLOBAL__sub_I__Z11spline_initPdS_i
	.local	_ZStL8__ioinit
	.comm	_ZStL8__ioinit,1,1
	.section	.rodata.cst32,"aM",@progbits,32
	.align 32
.LC1:
	.long	0
	.long	1074266112
	.long	0
	.long	1074266112
	.long	0
	.long	1074266112
	.long	0
	.long	1074266112
	.set	.LC2,.LC1
	.set	.LC3,.LC1
	.set	.LC4,.LC6
	.section	.rodata.cst8,"aM",@progbits,8
	.align 8
.LC5:
	.long	0
	.long	1072693248
	.section	.rodata.cst16,"aM",@progbits,16
	.align 16
.LC6:
	.long	0
	.long	1073741824
	.long	0
	.long	1073741824
	.section	.rodata.cst8
	.align 8
.LC7:
	.long	0
	.long	1071644672
	.section	.rodata.cst32
	.align 32
.LC8:
	.long	0
	.long	1
	.long	2
	.long	3
	.long	4
	.long	5
	.long	6
	.long	7
	.section	.rodata.cst8
	.align 8
.LC9:
	.long	-995156999
	.long	1063892432
	.section	.rodata.cst32
	.align 32
.LC11:
	.long	8
	.long	8
	.long	8
	.long	8
	.long	8
	.long	8
	.long	8
	.long	8
	.align 32
.LC12:
	.long	1
	.long	1
	.long	1
	.long	1
	.long	1
	.long	1
	.long	1
	.long	1
	.align 32
.LC13:
	.long	1413754136
	.long	1074340347
	.long	1413754136
	.long	1074340347
	.long	1413754136
	.long	1074340347
	.long	1413754136
	.long	1074340347
	.align 32
.LC14:
	.long	0
	.long	1083129856
	.long	0
	.long	1083129856
	.long	0
	.long	1083129856
	.long	0
	.long	1083129856
	.text
.Letext0:
	.file 7 "<built-in>"
	.file 8 "/usr/lib/gcc/x86_64-linux-gnu/11/include/stddef.h"
	.file 9 "/usr/include/x86_64-linux-gnu/bits/types.h"
	.file 10 "/usr/include/x86_64-linux-gnu/bits/types/__mbstate_t.h"
	.file 11 "/usr/include/x86_64-linux-gnu/bits/types/__fpos_t.h"
	.file 12 "/usr/include/x86_64-linux-gnu/bits/types/__FILE.h"
	.file 13 "/usr/include/x86_64-linux-gnu/bits/types/struct_FILE.h"
	.file 14 "/usr/include/x86_64-linux-gnu/bits/types/FILE.h"
	.file 15 "/usr/include/stdio.h"
	.file 16 "/usr/include/stdlib.h"
	.file 17 "/usr/include/x86_64-linux-gnu/bits/types/clock_t.h"
	.file 18 "/usr/include/x86_64-linux-gnu/bits/types/time_t.h"
	.file 19 "/usr/include/x86_64-linux-gnu/bits/stdint-intn.h"
	.file 20 "/usr/include/x86_64-linux-gnu/bits/types/struct_timespec.h"
	.file 21 "/usr/include/c++/11/cstdlib"
	.file 22 "/usr/include/c++/11/bits/std_abs.h"
	.file 23 "/usr/include/c++/11/cmath"
	.file 24 "/usr/include/x86_64-linux-gnu/c++/11/bits/c++config.h"
	.file 25 "/usr/include/c++/11/type_traits"
	.file 26 "/usr/include/c++/11/debug/debug.h"
	.file 27 "/usr/include/c++/11/cstdint"
	.file 28 "/usr/include/c++/11/ctime"
	.file 29 "/usr/include/c++/11/ratio"
	.file 30 "/usr/include/c++/11/cwchar"
	.file 31 "/usr/include/c++/11/bits/exception_ptr.h"
	.file 32 "/usr/include/c++/11/bits/char_traits.h"
	.file 33 "/usr/include/c++/11/clocale"
	.file 34 "/usr/include/c++/11/cstdio"
	.file 35 "/usr/include/c++/11/bits/ios_base.h"
	.file 36 "/usr/include/c++/11/cwctype"
	.file 37 "/usr/include/c++/11/bits/ostream.tcc"
	.file 38 "/usr/include/c++/11/iosfwd"
	.file 39 "/usr/include/c++/11/bits/stl_iterator.h"
	.file 40 "/usr/include/c++/11/bits/functexcept.h"
	.file 41 "/usr/include/x86_64-linux-gnu/bits/stdlib-float.h"
	.file 42 "/usr/include/x86_64-linux-gnu/bits/stdlib-bsearch.h"
	.file 43 "/usr/include/x86_64-linux-gnu/bits/stdlib.h"
	.file 44 "/usr/include/c++/11/bits/predefined_ops.h"
	.file 45 "/usr/include/c++/11/stdlib.h"
	.file 46 "/usr/include/math.h"
	.file 47 "/usr/include/c++/11/math.h"
	.file 48 "/usr/include/locale.h"
	.file 49 "/usr/include/x86_64-linux-gnu/bits/stdint-uintn.h"
	.file 50 "/usr/include/stdint.h"
	.file 51 "/usr/include/x86_64-linux-gnu/bits/types/struct_tm.h"
	.file 52 "/usr/include/time.h"
	.file 53 "/usr/include/x86_64-linux-gnu/bits/types/wint_t.h"
	.file 54 "/usr/include/x86_64-linux-gnu/bits/types/mbstate_t.h"
	.file 55 "/usr/include/wchar.h"
	.file 56 "/usr/include/x86_64-linux-gnu/bits/wchar2.h"
	.file 57 "/usr/include/x86_64-linux-gnu/bits/stdio2.h"
	.file 58 "/usr/include/x86_64-linux-gnu/bits/stdio.h"
	.file 59 "/usr/include/x86_64-linux-gnu/bits/wctype-wchar.h"
	.file 60 "/usr/include/wctype.h"
	.file 61 "/home/user/.openmpi/include/mpi.h"
	.file 62 "/usr/include/x86_64-linux-gnu/bits/mathcalls.h"
	.file 63 "/usr/include/c++/11/system_error"
	.section	.note.GNU-stack,"",@progbits
	.section	.note.gnu.property,"a"
	.align 8
	.long	1f - 0f
	.long	4f - 1f
	.long	5
0:
	.string	"GNU"
1:
	.align 8
	.long	0xc0000002
	.long	3f - 2f
2:
	.long	0x3
3:
	.align 8
4:
